; Function Attrs: mustprogress nounwind uwtable
define dso_local noundef zeroext i1 @_ZN4node9inspector16MainThreadHandle7ExpiredEv(ptr noundef nonnull align 8 dereferenceable(72) %this) local_unnamed_addr #3 align 2 {
entry:
  %block_lock_ = getelementptr inbounds i8, ptr %this, i64 24
  tail call void @uv_mutex_lock(ptr noundef nonnull %block_lock_) #20
  %main_thread_ = getelementptr inbounds i8, ptr %this, i64 16
  %0 = load ptr, ptr %main_thread_, align 8
  %cmp = icmp eq ptr %0, null
  tail call void @uv_mutex_unlock(ptr noundef nonnull %block_lock_) #20
  ret i1 %cmp
}